target datalayout = "e-m:e-p270:32:32-p271:32:32-p272:64:64-i64:64-i128:128-f80:128-n8:16:32:64-S128"
target triple = "x86_64-pc-linux-gnu"

%struct.H5D_t = type { %struct.H5O_loc_t, %struct.H5G_name_t, ptr }
%struct.H5O_loc_t = type { ptr, i64, i8 }
%struct.H5G_name_t = type { ptr, ptr, i32 }
%struct.H5D_shared_t = type { i64, i8, i64, ptr, ptr, i64, i64, %struct.H5D_dcpl_cache_t, %struct.H5O_layout_t, i8, i32, [32 x i64], [32 x i64], [32 x i64], %struct.anon.6, %struct.H5D_append_flush_t, ptr, ptr }
%struct.H5D_dcpl_cache_t = type { %struct.H5O_fill_t, %struct.H5O_pline_t, %struct.H5O_efl_t }
%struct.H5O_fill_t = type { %struct.H5O_shared_t, i32, ptr, i64, ptr, i32, i32, i8 }
%struct.H5O_shared_t = type { i32, ptr, i32, %union.anon }
%union.anon = type { %struct.H5O_mesg_loc_t }
%struct.H5O_mesg_loc_t = type { i32, i64 }
%struct.H5O_pline_t = type { %struct.H5O_shared_t, i32, i64, i64, ptr }
%struct.H5O_efl_t = type { i64, i64, i64, ptr }
%struct.H5O_layout_t = type { i32, i32, ptr, %union.anon.0, %struct.H5O_storage_t }
%union.anon.0 = type { %struct.H5O_layout_chunk_t }
%struct.H5O_layout_chunk_t = type { i32, i8, i32, [33 x i32], i32, i32, i64, i64, [33 x i64], [33 x i64], [33 x i64], [33 x i64], %union.anon.1 }
%union.anon.1 = type { %struct.H5O_layout_chunk_earray_t }
%struct.H5O_layout_chunk_earray_t = type { %struct.anon.2, i32, [33 x i32], [33 x i64], [33 x i64] }
%struct.anon.2 = type { i8, i8, i8, i8, i8 }
%struct.H5O_storage_t = type { i32, %union.anon.4 }
%union.anon.4 = type { %struct.H5O_storage_virtual_t }
%struct.H5O_storage_virtual_t = type { %struct.H5HG_t, i64, ptr, i64, [32 x i64], i32, i64, i64, i64, i8 }
%struct.H5HG_t = type { i64, i64 }
%struct.anon.6 = type { %struct.H5D_rdcdc_t, %struct.H5D_rdcc_t }
%struct.H5D_rdcdc_t = type { ptr, i64, i64, i64, i8 }
%struct.H5D_rdcc_t = type { %struct.anon.7, i64, i64, double, ptr, ptr, ptr, i64, i32, %struct.H5D_chunk_cached_t, ptr, ptr, ptr, ptr, [32 x i64], [32 x i64], [32 x i32] }
%struct.anon.7 = type { i32, i32, i32, i32 }
%struct.H5D_chunk_cached_t = type { i8, [33 x i64], i64, i32, i64, i32 }
%struct.H5D_append_flush_t = type { i32, [32 x i64], ptr, ptr }
%struct.H5D_chk_idx_info_t = type { ptr, ptr, ptr, ptr }
%struct.H5O_storage_chunk_t = type { i32, i64, ptr, %union.anon.5 }
%union.anon.5 = type { %struct.H5O_storage_chunk_btree_t }
%struct.H5O_storage_chunk_btree_t = type { i64, ptr }
%struct.H5D_chunk_ops_t = type { i8, ptr, ptr, ptr, ptr, ptr, ptr, ptr, ptr, ptr, ptr, ptr, ptr, ptr, ptr, ptr, ptr, ptr, ptr, ptr }
%struct.H5F_block_t = type { i64, i64 }
%struct.H5D_rdcc_ent_t = type { i8, i8, i8, i32, [33 x i64], i32, i32, %struct.H5F_block_t, i64, ptr, i32, ptr, ptr, ptr, ptr }
%struct.H5D_chunk_iter_ud_t = type { ptr, ptr, ptr, i64 }

@H5D_init_g = external global i8, align 1
@H5_libterm_g = external global i8, align 1
@.str.1 = private unnamed_addr constant [102 x i8] c"generated/home/dtcxzyw/WorkSpace/Projects/compilers/llvm-opt-benchmark/bench/hdf5/hdf5/src/H5Dchunk.c\00", align 1
@H5E_DATASET_g = external global i64, align 8
@.str.20 = private unnamed_addr constant [36 x i8] c"cannot flush indexed storage buffer\00", align 1
@H5E_CANTFLUSH_g = external global i64, align 8
@__func__.H5D__chunk_iter = private unnamed_addr constant [16 x i8] c"H5D__chunk_iter\00", align 1
@H5E_CANTNEXT_g = external global i64, align 8
@.str.75 = private unnamed_addr constant [23 x i8] c"chunk iteration failed\00", align 1

; Function Attrs: nounwind uwtable
define i32 @H5D__chunk_iter(ptr noundef %0, ptr noundef %1, ptr noundef %2) #0 {
  %4 = alloca ptr, align 8
  %5 = alloca ptr, align 8
  %6 = alloca ptr, align 8
  %7 = alloca ptr, align 8
  %8 = alloca ptr, align 8
  %9 = alloca ptr, align 8
  %10 = alloca %struct.H5D_chk_idx_info_t, align 8
  %11 = alloca i32, align 4
  %12 = alloca i64, align 8
  %13 = alloca i8, align 1
  %14 = alloca %struct.H5D_chunk_iter_ud_t, align 8
  store ptr %0, ptr %4, align 8, !tbaa !8
  store ptr %1, ptr %5, align 8, !tbaa !154
  store ptr %2, ptr %6, align 8, !tbaa !154
  call void @llvm.lifetime.start.p0(i64 8, ptr %7) #10
  store ptr null, ptr %7, align 8, !tbaa !54
  call void @llvm.lifetime.start.p0(i64 8, ptr %8) #10
  store ptr null, ptr %8, align 8, !tbaa !188
  call void @llvm.lifetime.start.p0(i64 8, ptr %9) #10
  call void @llvm.lifetime.start.p0(i64 32, ptr %10) #10
  call void @llvm.lifetime.start.p0(i64 4, ptr %11) #10
  store i32 0, ptr %11, align 4, !tbaa !10
  call void @llvm.lifetime.start.p0(i64 8, ptr %12) #10
  store i64 -1, ptr %12, align 8, !tbaa !24
  call void @llvm.lifetime.start.p0(i64 1, ptr %13) #10
  store i8 0, ptr %13, align 1, !tbaa !12
  %15 = load ptr, ptr %4, align 8, !tbaa !8
  %16 = getelementptr inbounds nuw %struct.H5D_t, ptr %15, i32 0, i32 0
  %17 = getelementptr inbounds nuw %struct.H5O_loc_t, ptr %16, i32 0, i32 1
  %18 = load i64, ptr %17, align 8, !tbaa !78
  call void @H5AC_tag(i64 noundef %18, ptr noundef %12)
  %19 = load i8, ptr @H5D_init_g, align 1, !tbaa !12, !range !14, !noundef !15
  %20 = trunc i8 %19 to i1
  br i1 %20, label %25, label %21

21:                                               ; preds = %3
  %22 = load i8, ptr @H5_libterm_g, align 1, !tbaa !12, !range !14, !noundef !15
  %23 = trunc i8 %22 to i1
  %24 = xor i1 %23, true
  br label %25

25:                                               ; preds = %21, %3
  %26 = phi i1 [ true, %3 ], [ %24, %21 ]
  %27 = xor i1 %26, true
  %28 = xor i1 %27, true
  %29 = zext i1 %28 to i32
  %30 = sext i32 %29 to i64
  %31 = call i64 @llvm.expect.i64(i64 %30, i64 1)
  %32 = icmp ne i64 %31, 0
  br i1 %32, label %33, label %138

33:                                               ; preds = %25
  %34 = load ptr, ptr %4, align 8, !tbaa !8
  %35 = getelementptr inbounds nuw %struct.H5D_t, ptr %34, i32 0, i32 2
  %36 = load ptr, ptr %35, align 8, !tbaa !16
  %37 = getelementptr inbounds nuw %struct.H5D_shared_t, ptr %36, i32 0, i32 8
  store ptr %37, ptr %8, align 8, !tbaa !188
  %38 = load ptr, ptr %4, align 8, !tbaa !8
  %39 = getelementptr inbounds nuw %struct.H5D_t, ptr %38, i32 0, i32 2
  %40 = load ptr, ptr %39, align 8, !tbaa !16
  %41 = getelementptr inbounds nuw %struct.H5D_shared_t, ptr %40, i32 0, i32 14
  %42 = getelementptr inbounds nuw %struct.anon.6, ptr %41, i32 0, i32 1
  store ptr %42, ptr %7, align 8, !tbaa !54
  %43 = load ptr, ptr %7, align 8, !tbaa !54
  %44 = getelementptr inbounds nuw %struct.H5D_rdcc_t, ptr %43, i32 0, i32 4
  %45 = load ptr, ptr %44, align 8, !tbaa !182
  store ptr %45, ptr %9, align 8, !tbaa !183
  br label %46

46:                                               ; preds = %74, %33
  %47 = load ptr, ptr %9, align 8, !tbaa !183
  %48 = icmp ne ptr %47, null
  br i1 %48, label %49, label %78

49:                                               ; preds = %46
  %50 = load ptr, ptr %4, align 8, !tbaa !8
  %51 = load ptr, ptr %9, align 8, !tbaa !183
  %52 = call i32 @H5D__chunk_flush_entry(ptr noundef %50, ptr noundef %51, i1 noundef zeroext false)
  %53 = icmp slt i32 %52, 0
  br i1 %53, label %54, label %73

54:                                               ; preds = %49
  br label %55

55:                                               ; preds = %54
  br label %56

56:                                               ; preds = %55
  br label %57

57:                                               ; preds = %56
  %58 = load i64, ptr @H5E_DATASET_g, align 8, !tbaa !24
  %59 = load i64, ptr @H5E_CANTFLUSH_g, align 8, !tbaa !24
  %60 = call i32 (ptr, ptr, i32, i64, i64, ptr, ...) @H5E_printf_stack(ptr noundef @.str.1, ptr noundef @__func__.H5D__chunk_iter, i32 noundef 8197, i64 noundef %58, i64 noundef %59, ptr noundef @.str.20)
  br label %61

61:                                               ; preds = %57
  br label %62

62:                                               ; preds = %61
  store i8 1, ptr %13, align 1, !tbaa !12
  %63 = load i8, ptr %13, align 1, !tbaa !12, !range !14, !noundef !15
  %64 = trunc i8 %63 to i1
  %65 = zext i1 %64 to i8
  store i8 %65, ptr %13, align 1, !tbaa !12
  br label %66

66:                                               ; preds = %62
  br label %67

67:                                               ; preds = %66
  br label %68

68:                                               ; preds = %67
  store i32 -1, ptr %11, align 4, !tbaa !10
  br label %137

69:                                               ; No predecessors!
  br label %70

70:                                               ; preds = %69
  br label %71

71:                                               ; preds = %70
  br label %72

72:                                               ; preds = %71
  br label %73

73:                                               ; preds = %72, %49
  br label %74

74:                                               ; preds = %73
  %75 = load ptr, ptr %9, align 8, !tbaa !183
  %76 = getelementptr inbounds nuw %struct.H5D_rdcc_ent_t, ptr %75, i32 0, i32 11
  %77 = load ptr, ptr %76, align 8, !tbaa !184
  store ptr %77, ptr %9, align 8, !tbaa !183
  br label %46, !llvm.loop !412

78:                                               ; preds = %46
  %79 = load ptr, ptr %4, align 8, !tbaa !8
  %80 = getelementptr inbounds nuw %struct.H5D_t, ptr %79, i32 0, i32 0
  %81 = getelementptr inbounds nuw %struct.H5O_loc_t, ptr %80, i32 0, i32 0
  %82 = load ptr, ptr %81, align 8, !tbaa !172
  %83 = getelementptr inbounds nuw %struct.H5D_chk_idx_info_t, ptr %10, i32 0, i32 0
  store ptr %82, ptr %83, align 8, !tbaa !65
  %84 = load ptr, ptr %4, align 8, !tbaa !8
  %85 = getelementptr inbounds nuw %struct.H5D_t, ptr %84, i32 0, i32 2
  %86 = load ptr, ptr %85, align 8, !tbaa !16
  %87 = getelementptr inbounds nuw %struct.H5D_shared_t, ptr %86, i32 0, i32 7
  %88 = getelementptr inbounds nuw %struct.H5D_dcpl_cache_t, ptr %87, i32 0, i32 1
  %89 = getelementptr inbounds nuw %struct.H5D_chk_idx_info_t, ptr %10, i32 0, i32 1
  store ptr %88, ptr %89, align 8, !tbaa !69
  %90 = load ptr, ptr %8, align 8, !tbaa !188
  %91 = getelementptr inbounds nuw %struct.H5O_layout_t, ptr %90, i32 0, i32 3
  %92 = getelementptr inbounds nuw %struct.H5D_chk_idx_info_t, ptr %10, i32 0, i32 2
  store ptr %91, ptr %92, align 8, !tbaa !70
  %93 = load ptr, ptr %8, align 8, !tbaa !188
  %94 = getelementptr inbounds nuw %struct.H5O_layout_t, ptr %93, i32 0, i32 4
  %95 = getelementptr inbounds nuw %struct.H5O_storage_t, ptr %94, i32 0, i32 1
  %96 = getelementptr inbounds nuw %struct.H5D_chk_idx_info_t, ptr %10, i32 0, i32 3
  store ptr %95, ptr %96, align 8, !tbaa !71
  %97 = getelementptr inbounds nuw %struct.H5D_chk_idx_info_t, ptr %10, i32 0, i32 3
  %98 = load ptr, ptr %97, align 8, !tbaa !71
  %99 = getelementptr inbounds nuw %struct.H5O_storage_chunk_t, ptr %98, i32 0, i32 1
  %100 = load i64, ptr %99, align 8, !tbaa !395
  %101 = icmp ne i64 %100, -1
  br i1 %101, label %102, label %136

102:                                              ; preds = %78
  call void @llvm.lifetime.start.p0(i64 32, ptr %14) #10
  %103 = load ptr, ptr %5, align 8, !tbaa !154
  %104 = getelementptr inbounds nuw %struct.H5D_chunk_iter_ud_t, ptr %14, i32 0, i32 0
  store ptr %103, ptr %104, align 8, !tbaa !413
  %105 = load ptr, ptr %6, align 8, !tbaa !154
  %106 = getelementptr inbounds nuw %struct.H5D_chunk_iter_ud_t, ptr %14, i32 0, i32 1
  store ptr %105, ptr %106, align 8, !tbaa !415
  %107 = load ptr, ptr %4, align 8, !tbaa !8
  %108 = getelementptr inbounds nuw %struct.H5D_t, ptr %107, i32 0, i32 2
  %109 = load ptr, ptr %108, align 8, !tbaa !16
  %110 = getelementptr inbounds nuw %struct.H5D_shared_t, ptr %109, i32 0, i32 8
  %111 = getelementptr inbounds nuw %struct.H5O_layout_t, ptr %110, i32 0, i32 3
  %112 = getelementptr inbounds nuw %struct.H5D_chunk_iter_ud_t, ptr %14, i32 0, i32 2
  store ptr %111, ptr %112, align 8, !tbaa !416
  %113 = load ptr, ptr %4, align 8, !tbaa !8
  %114 = getelementptr inbounds nuw %struct.H5D_t, ptr %113, i32 0, i32 0
  %115 = getelementptr inbounds nuw %struct.H5O_loc_t, ptr %114, i32 0, i32 0
  %116 = load ptr, ptr %115, align 8, !tbaa !172
  %117 = call i64 @H5F_get_base_addr(ptr noundef %116)
  %118 = getelementptr inbounds nuw %struct.H5D_chunk_iter_ud_t, ptr %14, i32 0, i32 3
  store i64 %117, ptr %118, align 8, !tbaa !417
  %119 = load ptr, ptr %8, align 8, !tbaa !188
  %120 = getelementptr inbounds nuw %struct.H5O_layout_t, ptr %119, i32 0, i32 4
  %121 = getelementptr inbounds nuw %struct.H5O_storage_t, ptr %120, i32 0, i32 1
  %122 = getelementptr inbounds nuw %struct.H5O_storage_chunk_t, ptr %121, i32 0, i32 2
  %123 = load ptr, ptr %122, align 8, !tbaa !23
  %124 = getelementptr inbounds nuw %struct.H5D_chunk_ops_t, ptr %123, i32 0, i32 11
  %125 = load ptr, ptr %124, align 8, !tbaa !257
  %126 = call i32 %125(ptr noundef %10, ptr noundef @H5D__chunk_iter_cb, ptr noundef %14)
  store i32 %126, ptr %11, align 4, !tbaa !10
  %127 = icmp slt i32 %126, 0
  br i1 %127, label %128, label %135

128:                                              ; preds = %102
  br label %129

129:                                              ; preds = %128
  %130 = load i64, ptr @H5E_DATASET_g, align 8, !tbaa !24
  %131 = load i64, ptr @H5E_CANTNEXT_g, align 8, !tbaa !24
  %132 = call i32 (ptr, ptr, i32, i64, i64, ptr, ...) @H5E_printf_stack(ptr noundef @.str.1, ptr noundef @__func__.H5D__chunk_iter, i32 noundef 8217, i64 noundef %130, i64 noundef %131, ptr noundef @.str.75)
  br label %133

133:                                              ; preds = %129
  br label %134

134:                                              ; preds = %133
  br label %135

135:                                              ; preds = %134, %102
  call void @llvm.lifetime.end.p0(i64 32, ptr %14) #10
  br label %136

136:                                              ; preds = %135, %78
  br label %137

137:                                              ; preds = %136, %68
  br label %138

138:                                              ; preds = %137, %25
  %139 = load i64, ptr %12, align 8, !tbaa !24
  call void @H5AC_tag(i64 noundef %139, ptr noundef null)
  %140 = load i32, ptr %11, align 4, !tbaa !10
  call void @llvm.lifetime.end.p0(i64 1, ptr %13) #10
  call void @llvm.lifetime.end.p0(i64 8, ptr %12) #10
  call void @llvm.lifetime.end.p0(i64 4, ptr %11) #10
  call void @llvm.lifetime.end.p0(i64 32, ptr %10) #10
  call void @llvm.lifetime.end.p0(i64 8, ptr %9) #10
  call void @llvm.lifetime.end.p0(i64 8, ptr %8) #10
  call void @llvm.lifetime.end.p0(i64 8, ptr %7) #10
  ret i32 %140
}